target datalayout = "e-m:e-p270:32:32-p271:32:32-p272:64:64-i64:64-i128:128-f80:128-n8:16:32:64-S128"
target triple = "x86_64-pc-linux-gnu"

%struct.cpool = type { %struct.Curl_hash, i64, i64, i64, %struct.curltime, %struct.Curl_llist, ptr, ptr, ptr, ptr, i8 }
%struct.Curl_hash = type { ptr, ptr, ptr, ptr, i64, i64 }
%struct.curltime = type { i64, i32 }
%struct.Curl_llist = type { ptr, ptr, ptr, i64 }
%struct.Curl_share = type { i32, i32, i32, ptr, ptr, ptr, %struct.cpool, %struct.Curl_hash, ptr, ptr, ptr, i64, i64 }

; Function Attrs: nounwind uwtable
define dso_local i32 @Curl_cpool_add_pollfds(ptr noundef %0, ptr noundef %1) #0 {
  %3 = alloca ptr, align 8
  %4 = alloca ptr, align 8
  %5 = alloca i32, align 4
  store ptr %0, ptr %3, align 8, !tbaa !4
  store ptr %1, ptr %4, align 8, !tbaa !150
  call void @llvm.lifetime.start.p0(i64 4, ptr %5) #6
  br label %6

6:                                                ; preds = %2
  %7 = load ptr, ptr %3, align 8, !tbaa !4
  %8 = icmp ne ptr %7, null
  br i1 %8, label %9, label %36

9:                                                ; preds = %6
  %10 = load ptr, ptr %3, align 8, !tbaa !4
  %11 = getelementptr inbounds nuw %struct.cpool, ptr %10, i32 0, i32 8
  %12 = load ptr, ptr %11, align 8, !tbaa !88
  %13 = icmp ne ptr %12, null
  br i1 %13, label %14, label %27

14:                                               ; preds = %9
  %15 = load ptr, ptr %3, align 8, !tbaa !4
  %16 = getelementptr inbounds nuw %struct.cpool, ptr %15, i32 0, i32 8
  %17 = load ptr, ptr %16, align 8, !tbaa !88
  %18 = getelementptr inbounds nuw %struct.Curl_share, ptr %17, i32 0, i32 1
  %19 = load i32, ptr %18, align 4, !tbaa !91
  %20 = and i32 %19, 32
  %21 = icmp ne i32 %20, 0
  br i1 %21, label %22, label %27

22:                                               ; preds = %14
  %23 = load ptr, ptr %3, align 8, !tbaa !4
  %24 = getelementptr inbounds nuw %struct.cpool, ptr %23, i32 0, i32 6
  %25 = load ptr, ptr %24, align 8, !tbaa !16
  %26 = call i32 @Curl_share_lock(ptr noundef %25, i32 noundef 5, i32 noundef 2)
  br label %27

27:                                               ; preds = %22, %14, %9
  br label %28

28:                                               ; preds = %27
  br label %29

29:                                               ; preds = %28
  br label %30

30:                                               ; preds = %29
  %31 = load ptr, ptr %3, align 8, !tbaa !4
  %32 = getelementptr inbounds nuw %struct.cpool, ptr %31, i32 0, i32 10
  %33 = load i8, ptr %32, align 8
  %34 = and i8 %33, -2
  %35 = or i8 %34, 1
  store i8 %35, ptr %32, align 8
  br label %36

36:                                               ; preds = %30, %6
  br label %37

37:                                               ; preds = %36
  br label %38

38:                                               ; preds = %37
  %39 = load ptr, ptr %3, align 8, !tbaa !4
  %40 = load ptr, ptr %4, align 8, !tbaa !150
  %41 = call i32 @cpool_add_pollfds(ptr noundef %39, ptr noundef %40)
  store i32 %41, ptr %5, align 4, !tbaa !90
  br label %42

42:                                               ; preds = %38
  %43 = load ptr, ptr %3, align 8, !tbaa !4
  %44 = icmp ne ptr %43, null
  br i1 %44, label %45, label %72

45:                                               ; preds = %42
  br label %46

46:                                               ; preds = %45
  br label %47

47:                                               ; preds = %46
  br label %48

48:                                               ; preds = %47
  %49 = load ptr, ptr %3, align 8, !tbaa !4
  %50 = getelementptr inbounds nuw %struct.cpool, ptr %49, i32 0, i32 10
  %51 = load i8, ptr %50, align 8
  %52 = and i8 %51, -2
  %53 = or i8 %52, 0
  store i8 %53, ptr %50, align 8
  %54 = load ptr, ptr %3, align 8, !tbaa !4
  %55 = getelementptr inbounds nuw %struct.cpool, ptr %54, i32 0, i32 8
  %56 = load ptr, ptr %55, align 8, !tbaa !88
  %57 = icmp ne ptr %56, null
  br i1 %57, label %58, label %71

58:                                               ; preds = %48
  %59 = load ptr, ptr %3, align 8, !tbaa !4
  %60 = getelementptr inbounds nuw %struct.cpool, ptr %59, i32 0, i32 8
  %61 = load ptr, ptr %60, align 8, !tbaa !88
  %62 = getelementptr inbounds nuw %struct.Curl_share, ptr %61, i32 0, i32 1
  %63 = load i32, ptr %62, align 4, !tbaa !91
  %64 = and i32 %63, 32
  %65 = icmp ne i32 %64, 0
  br i1 %65, label %66, label %71

66:                                               ; preds = %58
  %67 = load ptr, ptr %3, align 8, !tbaa !4
  %68 = getelementptr inbounds nuw %struct.cpool, ptr %67, i32 0, i32 6
  %69 = load ptr, ptr %68, align 8, !tbaa !16
  %70 = call i32 @Curl_share_unlock(ptr noundef %69, i32 noundef 5)
  br label %71

71:                                               ; preds = %66, %58, %48
  br label %72

72:                                               ; preds = %71, %42
  br label %73

73:                                               ; preds = %72
  br label %74

74:                                               ; preds = %73
  %75 = load i32, ptr %5, align 4, !tbaa !90
  call void @llvm.lifetime.end.p0(i64 4, ptr %5) #6
  ret i32 %75
}